; Function Attrs: nounwind uwtable
define internal fastcc void @close_filters(ptr %.632.val) unnamed_addr #0 {
  %.not1 = icmp eq ptr %.632.val, null
  br i1 %.not1, label %._crit_edge, label %.lr.ph

.lr.ph:                                           ; preds = %0, %12
  %.03 = phi ptr [ %2, %12 ], [ %.632.val, %0 ]
  %.0142 = phi i32 [ %.1, %12 ], [ 0, %0 ]
  %1 = getelementptr inbounds nuw i8, ptr %.03, i64 16
  %2 = load ptr, ptr %1, align 8, !tbaa !63
  %3 = getelementptr inbounds nuw i8, ptr %.03, i64 137
  %4 = load i8, ptr %3, align 1, !tbaa !64
  %.not17 = icmp eq i8 %4, 0
  br i1 %.not17, label %5, label %12

5:                                                ; preds = %.lr.ph
  %6 = getelementptr inbounds nuw i8, ptr %.03, i64 32
  %7 = load ptr, ptr %6, align 8, !tbaa !47
  %.not18 = icmp eq ptr %7, null
  br i1 %.not18, label %12, label %8

8:                                                ; preds = %5
  %9 = getelementptr inbounds nuw i8, ptr %7, i64 8
  %10 = load ptr, ptr %9, align 8, !tbaa !65
  %11 = tail call i32 %10(ptr noundef nonnull %.03) #15
  store i8 1, ptr %3, align 1, !tbaa !64
  %spec.select = tail call i32 @llvm.smin.i32(i32 %11, i32 %.0142)
  br label %12

12:                                               ; preds = %8, %5, %.lr.ph
  %.1 = phi i32 [ %.0142, %.lr.ph ], [ %spec.select, %8 ], [ %.0142, %5 ]
  %13 = getelementptr inbounds nuw i8, ptr %.03, i64 72
  %14 = load ptr, ptr %13, align 8, !tbaa !67
  tail call void @free(ptr noundef %14) #15
  store ptr null, ptr %13, align 8, !tbaa !67
  %.not = icmp eq ptr %2, null
  br i1 %.not, label %._crit_edge, label %.lr.ph, !llvm.loop !68

._crit_edge:                                      ; preds = %12, %0
  ret void
}